target datalayout = "e-m:e-p270:32:32-p271:32:32-p272:64:64-i64:64-i128:128-f80:128-n8:16:32:64-S128"
target triple = "x86_64-pc-linux-gnu"

%struct.Query = type { i32, i32, i32, i64, i8, ptr, i32, i8, i8, i8, i8, i8, i8, i8, i8, i8, i8, i8, ptr, ptr, ptr, ptr, ptr, i32, ptr, ptr, i32, ptr, ptr, ptr, ptr, ptr, i8, ptr, ptr, ptr, ptr, ptr, ptr, ptr, i32, ptr, ptr, ptr, ptr, i32, i32 }
%struct.PlannerInfo = type { i32, ptr, ptr, i32, ptr, ptr, ptr, ptr, i32, ptr, ptr, ptr, ptr, ptr, ptr, ptr, ptr, i32, ptr, ptr, ptr, ptr, ptr, i8, ptr, ptr, ptr, ptr, ptr, i32, ptr, ptr, ptr, ptr, ptr, ptr, ptr, i32, ptr, ptr, ptr, i32, ptr, ptr, ptr, ptr, ptr, ptr, [8 x ptr], [8 x ptr], ptr, ptr, ptr, ptr, ptr, ptr, ptr, double, double, double, i32, i8, i8, i8, i8, i8, i8, i8, i32, ptr, ptr, i32, i8, i8, i32, ptr, ptr, ptr, ptr, ptr, ptr, i8, ptr }
%struct.List = type { i32, i32, i32, ptr, [0 x %union.ListCell] }
%union.ListCell = type { ptr }
%struct.ForEachState = type { ptr, i32 }
%struct.SortGroupClause = type { i32, i32, i32, i32, i8, i8, i8 }

; Function Attrs: nounwind uwtable
define internal ptr @preprocess_groupclause(ptr noundef %0, ptr noundef %1) #0 {
  %3 = alloca ptr, align 8
  %4 = alloca ptr, align 8
  %5 = alloca ptr, align 8
  %6 = alloca ptr, align 8
  %7 = alloca ptr, align 8
  %8 = alloca ptr, align 8
  %9 = alloca ptr, align 8
  %10 = alloca %struct.ForEachState, align 8
  %11 = alloca i32, align 4
  %12 = alloca ptr, align 8
  %13 = alloca i32, align 4
  %14 = alloca %struct.ForEachState, align 8
  %15 = alloca ptr, align 8
  %16 = alloca %struct.ForEachState, align 8
  %17 = alloca ptr, align 8
  %18 = alloca %struct.ForEachState, align 8
  %19 = alloca ptr, align 8
  store ptr %0, ptr %4, align 8
  store ptr %1, ptr %5, align 8
  call void @llvm.lifetime.start.p0(i64 8, ptr %6) #8
  %20 = load ptr, ptr %4, align 8
  %21 = getelementptr inbounds nuw %struct.PlannerInfo, ptr %20, i32 0, i32 1
  %22 = load ptr, ptr %21, align 8
  store ptr %22, ptr %6, align 8
  call void @llvm.lifetime.start.p0(i64 8, ptr %7) #8
  store ptr null, ptr %7, align 8
  call void @llvm.lifetime.start.p0(i64 8, ptr %8) #8
  call void @llvm.lifetime.start.p0(i64 8, ptr %9) #8
  %23 = load ptr, ptr %5, align 8
  %24 = icmp ne ptr %23, null
  br i1 %24, label %25, label %73

25:                                               ; preds = %2
  call void @llvm.lifetime.start.p0(i64 16, ptr %10) #8
  %26 = getelementptr inbounds nuw %struct.ForEachState, ptr %10, i32 0, i32 0
  %27 = load ptr, ptr %5, align 8
  store ptr %27, ptr %26, align 8
  %28 = getelementptr inbounds nuw %struct.ForEachState, ptr %10, i32 0, i32 1
  store i32 0, ptr %28, align 8
  %29 = getelementptr i8, ptr %10, i64 12
  call void @llvm.memset.p0.i64(ptr align 4 %29, i8 0, i64 4, i1 false)
  br label %30

30:                                               ; preds = %67, %25
  %31 = getelementptr inbounds nuw %struct.ForEachState, ptr %10, i32 0, i32 0
  %32 = load ptr, ptr %31, align 8
  %33 = icmp ne ptr %32, null
  br i1 %33, label %34, label %51

34:                                               ; preds = %30
  %35 = getelementptr inbounds nuw %struct.ForEachState, ptr %10, i32 0, i32 1
  %36 = load i32, ptr %35, align 8
  %37 = getelementptr inbounds nuw %struct.ForEachState, ptr %10, i32 0, i32 0
  %38 = load ptr, ptr %37, align 8
  %39 = getelementptr inbounds nuw %struct.List, ptr %38, i32 0, i32 1
  %40 = load i32, ptr %39, align 4
  %41 = icmp slt i32 %36, %40
  br i1 %41, label %42, label %51

42:                                               ; preds = %34
  %43 = getelementptr inbounds nuw %struct.ForEachState, ptr %10, i32 0, i32 0
  %44 = load ptr, ptr %43, align 8
  %45 = getelementptr inbounds nuw %struct.List, ptr %44, i32 0, i32 3
  %46 = load ptr, ptr %45, align 8
  %47 = getelementptr inbounds nuw %struct.ForEachState, ptr %10, i32 0, i32 1
  %48 = load i32, ptr %47, align 8
  %49 = sext i32 %48 to i64
  %50 = getelementptr inbounds %union.ListCell, ptr %46, i64 %49
  store ptr %50, ptr %8, align 8
  br label %52

51:                                               ; preds = %34, %30
  store ptr null, ptr %8, align 8
  br label %52

52:                                               ; preds = %51, %42
  %53 = phi i32 [ 1, %42 ], [ 0, %51 ]
  %54 = icmp ne i32 %53, 0
  br i1 %54, label %56, label %55

55:                                               ; preds = %52
  call void @llvm.lifetime.end.p0(i64 16, ptr %10) #8
  br label %71

56:                                               ; preds = %52
  call void @llvm.lifetime.start.p0(i64 4, ptr %11) #8
  %57 = load ptr, ptr %8, align 8
  %58 = load i32, ptr %57, align 8
  store i32 %58, ptr %11, align 4
  call void @llvm.lifetime.start.p0(i64 8, ptr %12) #8
  %59 = load i32, ptr %11, align 4
  %60 = load ptr, ptr %6, align 8
  %61 = getelementptr inbounds nuw %struct.Query, ptr %60, i32 0, i32 31
  %62 = load ptr, ptr %61, align 8
  %63 = call ptr @get_sortgroupref_clause(i32 noundef %59, ptr noundef %62)
  store ptr %63, ptr %12, align 8
  %64 = load ptr, ptr %7, align 8
  %65 = load ptr, ptr %12, align 8
  %66 = call ptr @lappend(ptr noundef %64, ptr noundef %65)
  store ptr %66, ptr %7, align 8
  call void @llvm.lifetime.end.p0(i64 8, ptr %12) #8
  call void @llvm.lifetime.end.p0(i64 4, ptr %11) #8
  br label %67

67:                                               ; preds = %56
  %68 = getelementptr inbounds nuw %struct.ForEachState, ptr %10, i32 0, i32 1
  %69 = load i32, ptr %68, align 8
  %70 = add i32 %69, 1
  store i32 %70, ptr %68, align 8
  br label %30, !llvm.loop !33

71:                                               ; preds = %55
  %72 = load ptr, ptr %7, align 8
  store ptr %72, ptr %3, align 8
  store i32 1, ptr %13, align 4
  br label %256

73:                                               ; preds = %2
  %74 = load ptr, ptr %6, align 8
  %75 = getelementptr inbounds nuw %struct.Query, ptr %74, i32 0, i32 37
  %76 = load ptr, ptr %75, align 8
  %77 = icmp eq ptr %76, null
  br i1 %77, label %78, label %83

78:                                               ; preds = %73
  %79 = load ptr, ptr %6, align 8
  %80 = getelementptr inbounds nuw %struct.Query, ptr %79, i32 0, i32 31
  %81 = load ptr, ptr %80, align 8
  %82 = call ptr @list_copy(ptr noundef %81)
  store ptr %82, ptr %3, align 8
  store i32 1, ptr %13, align 4
  br label %256

83:                                               ; preds = %73
  call void @llvm.lifetime.start.p0(i64 16, ptr %14) #8
  %84 = getelementptr inbounds nuw %struct.ForEachState, ptr %14, i32 0, i32 0
  %85 = load ptr, ptr %6, align 8
  %86 = getelementptr inbounds nuw %struct.Query, ptr %85, i32 0, i32 37
  %87 = load ptr, ptr %86, align 8
  store ptr %87, ptr %84, align 8
  %88 = getelementptr inbounds nuw %struct.ForEachState, ptr %14, i32 0, i32 1
  store i32 0, ptr %88, align 8
  %89 = getelementptr i8, ptr %14, i64 12
  call void @llvm.memset.p0.i64(ptr align 4 %89, i8 0, i64 4, i1 false)
  br label %90

90:                                               ; preds = %178, %83
  %91 = getelementptr inbounds nuw %struct.ForEachState, ptr %14, i32 0, i32 0
  %92 = load ptr, ptr %91, align 8
  %93 = icmp ne ptr %92, null
  br i1 %93, label %94, label %111

94:                                               ; preds = %90
  %95 = getelementptr inbounds nuw %struct.ForEachState, ptr %14, i32 0, i32 1
  %96 = load i32, ptr %95, align 8
  %97 = getelementptr inbounds nuw %struct.ForEachState, ptr %14, i32 0, i32 0
  %98 = load ptr, ptr %97, align 8
  %99 = getelementptr inbounds nuw %struct.List, ptr %98, i32 0, i32 1
  %100 = load i32, ptr %99, align 4
  %101 = icmp slt i32 %96, %100
  br i1 %101, label %102, label %111

102:                                              ; preds = %94
  %103 = getelementptr inbounds nuw %struct.ForEachState, ptr %14, i32 0, i32 0
  %104 = load ptr, ptr %103, align 8
  %105 = getelementptr inbounds nuw %struct.List, ptr %104, i32 0, i32 3
  %106 = load ptr, ptr %105, align 8
  %107 = getelementptr inbounds nuw %struct.ForEachState, ptr %14, i32 0, i32 1
  %108 = load i32, ptr %107, align 8
  %109 = sext i32 %108 to i64
  %110 = getelementptr inbounds %union.ListCell, ptr %106, i64 %109
  store ptr %110, ptr %8, align 8
  br label %112

111:                                              ; preds = %94, %90
  store ptr null, ptr %8, align 8
  br label %112

112:                                              ; preds = %111, %102
  %113 = phi i32 [ 1, %102 ], [ 0, %111 ]
  %114 = icmp ne i32 %113, 0
  br i1 %114, label %116, label %115

115:                                              ; preds = %112
  store i32 5, ptr %13, align 4
  br label %182

116:                                              ; preds = %112
  call void @llvm.lifetime.start.p0(i64 8, ptr %15) #8
  %117 = load ptr, ptr %8, align 8
  %118 = load ptr, ptr %117, align 8
  store ptr %118, ptr %15, align 8
  call void @llvm.lifetime.start.p0(i64 16, ptr %16) #8
  %119 = getelementptr inbounds nuw %struct.ForEachState, ptr %16, i32 0, i32 0
  %120 = load ptr, ptr %6, align 8
  %121 = getelementptr inbounds nuw %struct.Query, ptr %120, i32 0, i32 31
  %122 = load ptr, ptr %121, align 8
  store ptr %122, ptr %119, align 8
  %123 = getelementptr inbounds nuw %struct.ForEachState, ptr %16, i32 0, i32 1
  store i32 0, ptr %123, align 8
  %124 = getelementptr i8, ptr %16, i64 12
  call void @llvm.memset.p0.i64(ptr align 4 %124, i8 0, i64 4, i1 false)
  br label %125

125:                                              ; preds = %165, %116
  %126 = getelementptr inbounds nuw %struct.ForEachState, ptr %16, i32 0, i32 0
  %127 = load ptr, ptr %126, align 8
  %128 = icmp ne ptr %127, null
  br i1 %128, label %129, label %146

129:                                              ; preds = %125
  %130 = getelementptr inbounds nuw %struct.ForEachState, ptr %16, i32 0, i32 1
  %131 = load i32, ptr %130, align 8
  %132 = getelementptr inbounds nuw %struct.ForEachState, ptr %16, i32 0, i32 0
  %133 = load ptr, ptr %132, align 8
  %134 = getelementptr inbounds nuw %struct.List, ptr %133, i32 0, i32 1
  %135 = load i32, ptr %134, align 4
  %136 = icmp slt i32 %131, %135
  br i1 %136, label %137, label %146

137:                                              ; preds = %129
  %138 = getelementptr inbounds nuw %struct.ForEachState, ptr %16, i32 0, i32 0
  %139 = load ptr, ptr %138, align 8
  %140 = getelementptr inbounds nuw %struct.List, ptr %139, i32 0, i32 3
  %141 = load ptr, ptr %140, align 8
  %142 = getelementptr inbounds nuw %struct.ForEachState, ptr %16, i32 0, i32 1
  %143 = load i32, ptr %142, align 8
  %144 = sext i32 %143 to i64
  %145 = getelementptr inbounds %union.ListCell, ptr %141, i64 %144
  store ptr %145, ptr %9, align 8
  br label %147

146:                                              ; preds = %129, %125
  store ptr null, ptr %9, align 8
  br label %147

147:                                              ; preds = %146, %137
  %148 = phi i32 [ 1, %137 ], [ 0, %146 ]
  %149 = icmp ne i32 %148, 0
  br i1 %149, label %151, label %150

150:                                              ; preds = %147
  store i32 8, ptr %13, align 4
  br label %169

151:                                              ; preds = %147
  call void @llvm.lifetime.start.p0(i64 8, ptr %17) #8
  %152 = load ptr, ptr %9, align 8
  %153 = load ptr, ptr %152, align 8
  store ptr %153, ptr %17, align 8
  %154 = load ptr, ptr %17, align 8
  %155 = load ptr, ptr %15, align 8
  %156 = call zeroext i1 @equal(ptr noundef %154, ptr noundef %155)
  br i1 %156, label %157, label %161

157:                                              ; preds = %151
  %158 = load ptr, ptr %7, align 8
  %159 = load ptr, ptr %17, align 8
  %160 = call ptr @lappend(ptr noundef %158, ptr noundef %159)
  store ptr %160, ptr %7, align 8
  store i32 8, ptr %13, align 4
  br label %162

161:                                              ; preds = %151
  store i32 0, ptr %13, align 4
  br label %162

162:                                              ; preds = %161, %157
  call void @llvm.lifetime.end.p0(i64 8, ptr %17) #8
  %163 = load i32, ptr %13, align 4
  switch i32 %163, label %169 [
    i32 0, label %164
  ]

164:                                              ; preds = %162
  br label %165

165:                                              ; preds = %164
  %166 = getelementptr inbounds nuw %struct.ForEachState, ptr %16, i32 0, i32 1
  %167 = load i32, ptr %166, align 8
  %168 = add i32 %167, 1
  store i32 %168, ptr %166, align 8
  br label %125, !llvm.loop !34

169:                                              ; preds = %162, %150
  call void @llvm.lifetime.end.p0(i64 16, ptr %16) #8
  br label %170

170:                                              ; preds = %169
  %171 = load ptr, ptr %9, align 8
  %172 = icmp eq ptr %171, null
  br i1 %172, label %173, label %174

173:                                              ; preds = %170
  store i32 5, ptr %13, align 4
  br label %175

174:                                              ; preds = %170
  store i32 0, ptr %13, align 4
  br label %175

175:                                              ; preds = %174, %173
  call void @llvm.lifetime.end.p0(i64 8, ptr %15) #8
  %176 = load i32, ptr %13, align 4
  switch i32 %176, label %182 [
    i32 0, label %177
  ]

177:                                              ; preds = %175
  br label %178

178:                                              ; preds = %177
  %179 = getelementptr inbounds nuw %struct.ForEachState, ptr %14, i32 0, i32 1
  %180 = load i32, ptr %179, align 8
  %181 = add i32 %180, 1
  store i32 %181, ptr %179, align 8
  br label %90, !llvm.loop !35

182:                                              ; preds = %175, %115
  call void @llvm.lifetime.end.p0(i64 16, ptr %14) #8
  br label %183

183:                                              ; preds = %182
  %184 = load ptr, ptr %7, align 8
  %185 = icmp eq ptr %184, null
  br i1 %185, label %186, label %191

186:                                              ; preds = %183
  %187 = load ptr, ptr %6, align 8
  %188 = getelementptr inbounds nuw %struct.Query, ptr %187, i32 0, i32 31
  %189 = load ptr, ptr %188, align 8
  %190 = call ptr @list_copy(ptr noundef %189)
  store ptr %190, ptr %3, align 8
  store i32 1, ptr %13, align 4
  br label %256

191:                                              ; preds = %183
  call void @llvm.lifetime.start.p0(i64 16, ptr %18) #8
  %192 = getelementptr inbounds nuw %struct.ForEachState, ptr %18, i32 0, i32 0
  %193 = load ptr, ptr %6, align 8
  %194 = getelementptr inbounds nuw %struct.Query, ptr %193, i32 0, i32 31
  %195 = load ptr, ptr %194, align 8
  store ptr %195, ptr %192, align 8
  %196 = getelementptr inbounds nuw %struct.ForEachState, ptr %18, i32 0, i32 1
  store i32 0, ptr %196, align 8
  %197 = getelementptr i8, ptr %18, i64 12
  call void @llvm.memset.p0.i64(ptr align 4 %197, i8 0, i64 4, i1 false)
  br label %198

198:                                              ; preds = %248, %191
  %199 = getelementptr inbounds nuw %struct.ForEachState, ptr %18, i32 0, i32 0
  %200 = load ptr, ptr %199, align 8
  %201 = icmp ne ptr %200, null
  br i1 %201, label %202, label %219

202:                                              ; preds = %198
  %203 = getelementptr inbounds nuw %struct.ForEachState, ptr %18, i32 0, i32 1
  %204 = load i32, ptr %203, align 8
  %205 = getelementptr inbounds nuw %struct.ForEachState, ptr %18, i32 0, i32 0
  %206 = load ptr, ptr %205, align 8
  %207 = getelementptr inbounds nuw %struct.List, ptr %206, i32 0, i32 1
  %208 = load i32, ptr %207, align 4
  %209 = icmp slt i32 %204, %208
  br i1 %209, label %210, label %219

210:                                              ; preds = %202
  %211 = getelementptr inbounds nuw %struct.ForEachState, ptr %18, i32 0, i32 0
  %212 = load ptr, ptr %211, align 8
  %213 = getelementptr inbounds nuw %struct.List, ptr %212, i32 0, i32 3
  %214 = load ptr, ptr %213, align 8
  %215 = getelementptr inbounds nuw %struct.ForEachState, ptr %18, i32 0, i32 1
  %216 = load i32, ptr %215, align 8
  %217 = sext i32 %216 to i64
  %218 = getelementptr inbounds %union.ListCell, ptr %214, i64 %217
  store ptr %218, ptr %9, align 8
  br label %220

219:                                              ; preds = %202, %198
  store ptr null, ptr %9, align 8
  br label %220

220:                                              ; preds = %219, %210
  %221 = phi i32 [ 1, %210 ], [ 0, %219 ]
  %222 = icmp ne i32 %221, 0
  br i1 %222, label %224, label %223

223:                                              ; preds = %220
  store i32 11, ptr %13, align 4
  br label %252

224:                                              ; preds = %220
  call void @llvm.lifetime.start.p0(i64 8, ptr %19) #8
  %225 = load ptr, ptr %9, align 8
  %226 = load ptr, ptr %225, align 8
  store ptr %226, ptr %19, align 8
  %227 = load ptr, ptr %7, align 8
  %228 = load ptr, ptr %19, align 8
  %229 = call zeroext i1 @list_member_ptr(ptr noundef %227, ptr noundef %228)
  br i1 %229, label %230, label %231

230:                                              ; preds = %224
  store i32 13, ptr %13, align 4
  br label %245

231:                                              ; preds = %224
  %232 = load ptr, ptr %19, align 8
  %233 = getelementptr inbounds nuw %struct.SortGroupClause, ptr %232, i32 0, i32 3
  %234 = load i32, ptr %233, align 4
  %235 = icmp ne i32 %234, 0
  br i1 %235, label %241, label %236

236:                                              ; preds = %231
  %237 = load ptr, ptr %6, align 8
  %238 = getelementptr inbounds nuw %struct.Query, ptr %237, i32 0, i32 31
  %239 = load ptr, ptr %238, align 8
  %240 = call ptr @list_copy(ptr noundef %239)
  store ptr %240, ptr %3, align 8
  store i32 1, ptr %13, align 4
  br label %245

241:                                              ; preds = %231
  %242 = load ptr, ptr %7, align 8
  %243 = load ptr, ptr %19, align 8
  %244 = call ptr @lappend(ptr noundef %242, ptr noundef %243)
  store ptr %244, ptr %7, align 8
  store i32 0, ptr %13, align 4
  br label %245

245:                                              ; preds = %241, %236, %230
  call void @llvm.lifetime.end.p0(i64 8, ptr %19) #8
  %246 = load i32, ptr %13, align 4
  switch i32 %246, label %252 [
    i32 0, label %247
    i32 13, label %248
  ]

247:                                              ; preds = %245
  br label %248

248:                                              ; preds = %247, %245
  %249 = getelementptr inbounds nuw %struct.ForEachState, ptr %18, i32 0, i32 1
  %250 = load i32, ptr %249, align 8
  %251 = add i32 %250, 1
  store i32 %251, ptr %249, align 8
  br label %198, !llvm.loop !36

252:                                              ; preds = %245, %223
  call void @llvm.lifetime.end.p0(i64 16, ptr %18) #8
  %253 = load i32, ptr %13, align 4
  switch i32 %253, label %256 [
    i32 11, label %254
  ]

254:                                              ; preds = %252
  %255 = load ptr, ptr %7, align 8
  store ptr %255, ptr %3, align 8
  store i32 1, ptr %13, align 4
  br label %256

256:                                              ; preds = %254, %252, %186, %78, %71
  call void @llvm.lifetime.end.p0(i64 8, ptr %9) #8
  call void @llvm.lifetime.end.p0(i64 8, ptr %8) #8
  call void @llvm.lifetime.end.p0(i64 8, ptr %7) #8
  call void @llvm.lifetime.end.p0(i64 8, ptr %6) #8
  %257 = load ptr, ptr %3, align 8
  ret ptr %257
}