; Function Attrs: nounwind uwtable
define internal fastcc ptr @preprocess_groupclause(ptr readonly captures(none) %.8.val, ptr noundef readonly captures(address_is_null) %0) unnamed_addr #0 {
  %.not = icmp eq ptr %0, null
  br i1 %.not, label %15, label %.preheader34

.preheader34:                                     ; preds = %1
  %2 = getelementptr inbounds nuw i8, ptr %0, i64 4
  %3 = load i32, ptr %2, align 4
  %.not8739 = icmp sgt i32 %3, 0
  br i1 %.not8739, label %.lr.ph, label %.loopexit

.lr.ph:                                           ; preds = %.preheader34
  %4 = getelementptr inbounds nuw i8, ptr %0, i64 16
  %5 = getelementptr inbounds nuw i8, ptr %.8.val, i64 160
  br label %6

6:                                                ; preds = %.lr.ph, %6
  %indvars.iv = phi i64 [ 0, %.lr.ph ], [ %indvars.iv.next, %6 ]
  %.06241 = phi ptr [ null, %.lr.ph ], [ %12, %6 ]
  %7 = load ptr, ptr %4, align 8
  %8 = getelementptr inbounds nuw %union.ListCell, ptr %7, i64 %indvars.iv
  %9 = load i32, ptr %8, align 8
  %10 = load ptr, ptr %5, align 8
  %11 = tail call ptr @get_sortgroupref_clause(i32 noundef %9, ptr noundef %10) #12
  %12 = tail call ptr @lappend(ptr noundef %.06241, ptr noundef %11) #12
  %indvars.iv.next = add nuw nsw i64 %indvars.iv, 1
  %13 = load i32, ptr %2, align 4
  %14 = sext i32 %13 to i64
  %.not87 = icmp slt i64 %indvars.iv.next, %14
  br i1 %.not87, label %6, label %.loopexit, !llvm.loop !18

15:                                               ; preds = %1
  %16 = getelementptr inbounds nuw i8, ptr %.8.val, i64 208
  %17 = load ptr, ptr %16, align 8
  %18 = icmp eq ptr %17, null
  br i1 %18, label %23, label %.preheader

.preheader:                                       ; preds = %15
  %19 = getelementptr inbounds nuw i8, ptr %17, i64 4
  %20 = load i32, ptr %19, align 4
  %.not7960 = icmp sgt i32 %20, 0
  br i1 %.not7960, label %.lr.ph63, label %.thread12.thread

.lr.ph63:                                         ; preds = %.preheader
  %21 = getelementptr inbounds nuw i8, ptr %17, i64 16
  %22 = getelementptr inbounds nuw i8, ptr %.8.val, i64 160
  br label %25

23:                                               ; preds = %15
  %24 = getelementptr inbounds nuw i8, ptr %.8.val, i64 160
  br label %.loopexit.sink.split

25:                                               ; preds = %.lr.ph63, %.split
  %indvars.iv88 = phi i64 [ 0, %.lr.ph63 ], [ %indvars.iv.next89, %.split ]
  %.16362 = phi ptr [ null, %.lr.ph63 ], [ %42, %.split ]
  %26 = load ptr, ptr %21, align 8
  %27 = getelementptr inbounds nuw %union.ListCell, ptr %26, i64 %indvars.iv88
  %28 = load ptr, ptr %27, align 8
  %29 = load ptr, ptr %22, align 8
  %.not80 = icmp eq ptr %29, null
  br i1 %.not80, label %.thread12, label %.lr.ph43

.lr.ph43:                                         ; preds = %25
  %30 = getelementptr inbounds nuw i8, ptr %29, i64 4
  %31 = getelementptr inbounds nuw i8, ptr %29, i64 16
  %32 = load i32, ptr %30, align 4
  %33 = icmp sgt i32 %32, 0
  br i1 %33, label %.lr.ph57, label %.thread12

34:                                               ; preds = %.lr.ph57
  %indvars.iv.next86 = add nuw nsw i64 %indvars.iv85, 1
  %35 = load i32, ptr %30, align 4
  %36 = sext i32 %35 to i64
  %37 = icmp slt i64 %indvars.iv.next86, %36
  br i1 %37, label %.lr.ph57, label %.thread12

.lr.ph57:                                         ; preds = %.lr.ph43, %34
  %indvars.iv85 = phi i64 [ %indvars.iv.next86, %34 ], [ 0, %.lr.ph43 ]
  %38 = load ptr, ptr %31, align 8
  %39 = getelementptr inbounds nuw %union.ListCell, ptr %38, i64 %indvars.iv85
  %40 = load ptr, ptr %39, align 8
  %41 = tail call zeroext i1 @equal(ptr noundef %40, ptr noundef %28) #12
  br i1 %41, label %.split, label %34

.split:                                           ; preds = %.lr.ph57
  %42 = tail call ptr @lappend(ptr noundef %.16362, ptr noundef %40) #12
  %indvars.iv.next89 = add nuw nsw i64 %indvars.iv88, 1
  %43 = load i32, ptr %19, align 4
  %44 = sext i32 %43 to i64
  %.not79 = icmp slt i64 %indvars.iv.next89, %44
  br i1 %.not79, label %25, label %.thread12, !llvm.loop !29

.thread12:                                        ; preds = %.split, %25, %.lr.ph43, %34
  %.16338 = phi ptr [ %.16362, %34 ], [ %.16362, %25 ], [ %.16362, %.lr.ph43 ], [ %42, %.split ]
  %45 = icmp eq ptr %.16338, null
  br i1 %45, label %.thread12.thread, label %47

.thread12.thread:                                 ; preds = %.preheader, %.thread12
  %46 = getelementptr inbounds nuw i8, ptr %.8.val, i64 160
  br label %.loopexit.sink.split

47:                                               ; preds = %.thread12
  %48 = getelementptr inbounds nuw i8, ptr %.8.val, i64 160
  %49 = load ptr, ptr %48, align 8
  %.not83 = icmp eq ptr %49, null
  br i1 %.not83, label %.loopexit, label %.lr.ph67

.lr.ph67:                                         ; preds = %47
  %50 = getelementptr inbounds nuw i8, ptr %49, i64 4
  %51 = getelementptr inbounds nuw i8, ptr %49, i64 16
  %52 = load i32, ptr %50, align 4
  %53 = icmp sgt i32 %52, 0
  br i1 %53, label %.lr.ph77, label %.loopexit

.lr.ph77:                                         ; preds = %.lr.ph67, %63
  %indvars.iv91 = phi i64 [ %indvars.iv.next92, %63 ], [ 0, %.lr.ph67 ]
  %.66675 = phi ptr [ %.8.ph, %63 ], [ %.16338, %.lr.ph67 ]
  %54 = load ptr, ptr %51, align 8
  %55 = getelementptr inbounds nuw %union.ListCell, ptr %54, i64 %indvars.iv91
  %56 = load ptr, ptr %55, align 8
  %57 = tail call zeroext i1 @list_member_ptr(ptr noundef %.66675, ptr noundef %56) #12
  br i1 %57, label %63, label %58

58:                                               ; preds = %.lr.ph77
  %59 = getelementptr inbounds nuw i8, ptr %56, i64 12
  %60 = load i32, ptr %59, align 4
  %.not85 = icmp eq i32 %60, 0
  br i1 %.not85, label %.loopexit.sink.split, label %61

61:                                               ; preds = %58
  %62 = tail call ptr @lappend(ptr noundef %.66675, ptr noundef nonnull %56) #12
  br label %63

63:                                               ; preds = %61, %.lr.ph77
  %.8.ph = phi ptr [ %.66675, %.lr.ph77 ], [ %62, %61 ]
  %indvars.iv.next92 = add nuw nsw i64 %indvars.iv91, 1
  %64 = load i32, ptr %50, align 4
  %65 = sext i32 %64 to i64
  %66 = icmp slt i64 %indvars.iv.next92, %65
  br i1 %66, label %.lr.ph77, label %.loopexit

.loopexit.sink.split:                             ; preds = %58, %23, %.thread12.thread
  %.sink.in = phi ptr [ %46, %.thread12.thread ], [ %24, %23 ], [ %48, %58 ]
  %.sink = load ptr, ptr %.sink.in, align 8
  %67 = tail call ptr @list_copy(ptr noundef %.sink) #12
  br label %.loopexit

.loopexit:                                        ; preds = %6, %63, %.loopexit.sink.split, %.preheader34, %47, %.lr.ph67
  %.0 = phi ptr [ %.16338, %47 ], [ %.16338, %.lr.ph67 ], [ null, %.preheader34 ], [ %67, %.loopexit.sink.split ], [ %.8.ph, %63 ], [ %12, %6 ]
  ret ptr %.0
}